#include <math.h>
#include <stdio.h>
#include <stdlib.h>
#include <string.h>

void main()
{	int t[100]={0},i,j,k,l=0;char a[81]={0};	
	scanf("%d",&k);
	getchar();
	for(;l<k;l++)
	{
		for(j=0;j<81;j++)
		{
			a[j]=getchar();
			if (a[j]=='\n'){a[j]='\0';break;}
		}
		for(i=0;i<j;i++)
		{
			if( !(a[i]>47&&a[i]<58||a[i]==95||a[i]>64&&a[i]<91||a[i]>96&&a[i]<123) ){t[l]=-1;break;}
			else if(a[0]>47&&a[0]<58){t[l]=-1;break;}
		}
	}
	for(i=0;i<k;i++)		
		printf("%d\n",t[i]+1);
}
 